; Function Attrs: mustprogress uwtable
define <2 x float> @_ZN2cv6detail12AffineWarper17warpPointBackwardERKNS_6Point_IfEERKNS_11_InputArrayES8_(ptr noundef nonnull align 8 captures(none) dereferenceable(168) %0, ptr noundef nonnull readonly align 4 captures(none) dereferenceable(8) %1, ptr noundef nonnull align 8 dereferenceable(24) %2, ptr noundef nonnull align 8 dereferenceable(24) %3) unnamed_addr #8 align 2 personality ptr @__gxx_personality_v0 {
  %5 = alloca %"class.cv::Mat", align 8
  %6 = alloca %"class.cv::Mat", align 8
  %7 = alloca %"class.cv::_InputArray", align 8
  %8 = alloca %"class.cv::_InputArray", align 8
  call void @llvm.lifetime.start.p0(i64 96, ptr nonnull %5) #22
  call void @_ZN2cv3MatC1Ev(ptr noundef nonnull align 8 dereferenceable(96) %5) #22
  call void @llvm.lifetime.start.p0(i64 96, ptr nonnull %6) #22
  call void @_ZN2cv3MatC1Ev(ptr noundef nonnull align 8 dereferenceable(96) %6) #22
  invoke void @_ZN2cv6detail12AffineWarper20getRTfromHomogeneousERKNS_11_InputArrayERNS_3MatES6_(ptr nonnull align 8 poison, ptr noundef nonnull align 8 dereferenceable(24) %3, ptr noundef nonnull align 8 dereferenceable(96) %5, ptr noundef nonnull align 8 dereferenceable(96) %6)
          to label %9 unwind label %63

9:                                                ; preds = %4
  call void @llvm.lifetime.start.p0(i64 24, ptr nonnull %7) #22
  %10 = getelementptr inbounds nuw i8, ptr %7, i64 16
  store i32 0, ptr %10, align 8, !tbaa !203
  %11 = getelementptr inbounds nuw i8, ptr %7, i64 20
  store i32 0, ptr %11, align 4, !tbaa !204
  store i32 16842752, ptr %7, align 8, !tbaa !205
  %12 = getelementptr inbounds nuw i8, ptr %7, i64 8
  store ptr %5, ptr %12, align 8, !tbaa !160
  call void @llvm.lifetime.start.p0(i64 24, ptr nonnull %8) #22
  %13 = getelementptr inbounds nuw i8, ptr %8, i64 16
  store i32 0, ptr %13, align 8, !tbaa !203
  %14 = getelementptr inbounds nuw i8, ptr %8, i64 20
  store i32 0, ptr %14, align 4, !tbaa !204
  store i32 16842752, ptr %8, align 8, !tbaa !205
  %15 = getelementptr inbounds nuw i8, ptr %8, i64 8
  store ptr %6, ptr %15, align 8, !tbaa !160
  %16 = getelementptr inbounds nuw i8, ptr %0, i64 8
  invoke void @_ZN2cv6detail13ProjectorBase15setCameraParamsERKNS_11_InputArrayES4_S4_(ptr noundef nonnull align 4 dereferenceable(160) %16, ptr noundef nonnull align 8 dereferenceable(24) %2, ptr noundef nonnull align 8 dereferenceable(24) %7, ptr noundef nonnull align 8 dereferenceable(24) %8)
          to label %17 unwind label %65

17:                                               ; preds = %9
  %18 = load float, ptr %1, align 4, !tbaa !198
  %19 = getelementptr inbounds nuw i8, ptr %1, i64 4
  %20 = load float, ptr %19, align 4, !tbaa !200
  %21 = load float, ptr %16, align 8, !tbaa !201
  %22 = fdiv float %18, %21
  %23 = getelementptr inbounds nuw i8, ptr %0, i64 156
  %24 = load float, ptr %23, align 4, !tbaa !180
  %25 = fsub float %22, %24
  %26 = fdiv float %20, %21
  %27 = getelementptr inbounds nuw i8, ptr %0, i64 160
  %28 = load float, ptr %27, align 8, !tbaa !180
  %29 = fsub float %26, %28
  %30 = getelementptr inbounds nuw i8, ptr %0, i64 120
  %31 = load float, ptr %30, align 8, !tbaa !180
  %32 = getelementptr inbounds nuw i8, ptr %0, i64 124
  %33 = load float, ptr %32, align 4, !tbaa !180
  %34 = fmul float %29, %33
  %35 = call float @llvm.fmuladd.f32(float %31, float %25, float %34)
  %36 = getelementptr inbounds nuw i8, ptr %0, i64 128
  %37 = load float, ptr %36, align 8, !tbaa !180
  %38 = getelementptr inbounds nuw i8, ptr %0, i64 164
  %39 = load float, ptr %38, align 4, !tbaa !180
  %40 = fsub float 1.000000e+00, %39
  %41 = call float @llvm.fmuladd.f32(float %37, float %40, float %35)
  %42 = getelementptr inbounds nuw i8, ptr %0, i64 132
  %43 = load float, ptr %42, align 4, !tbaa !180
  %44 = getelementptr inbounds nuw i8, ptr %0, i64 136
  %45 = load float, ptr %44, align 8, !tbaa !180
  %46 = fmul float %29, %45
  %47 = call float @llvm.fmuladd.f32(float %43, float %25, float %46)
  %48 = getelementptr inbounds nuw i8, ptr %0, i64 140
  %49 = load float, ptr %48, align 4, !tbaa !180
  %50 = call float @llvm.fmuladd.f32(float %49, float %40, float %47)
  %51 = getelementptr inbounds nuw i8, ptr %0, i64 144
  %52 = load float, ptr %51, align 8, !tbaa !180
  %53 = getelementptr inbounds nuw i8, ptr %0, i64 148
  %54 = load float, ptr %53, align 4, !tbaa !180
  %55 = fmul float %29, %54
  %56 = call float @llvm.fmuladd.f32(float %52, float %25, float %55)
  %57 = getelementptr inbounds nuw i8, ptr %0, i64 152
  %58 = load float, ptr %57, align 8, !tbaa !180
  %59 = call float @llvm.fmuladd.f32(float %58, float %40, float %56)
  %60 = fdiv float %41, %59
  %61 = insertelement <2 x float> poison, float %60, i64 0
  %62 = fdiv float %50, %59
  %.sroa.0.4.vec.insert14.i = insertelement <2 x float> %61, float %62, i64 1
  call void @llvm.lifetime.end.p0(i64 24, ptr nonnull %8) #22
  call void @llvm.lifetime.end.p0(i64 24, ptr nonnull %7) #22
  call void @_ZN2cv3MatD1Ev(ptr noundef nonnull align 8 dereferenceable(96) %6) #22
  call void @llvm.lifetime.end.p0(i64 96, ptr nonnull %6) #22
  call void @_ZN2cv3MatD1Ev(ptr noundef nonnull align 8 dereferenceable(96) %5) #22
  call void @llvm.lifetime.end.p0(i64 96, ptr nonnull %5) #22
  ret <2 x float> %.sroa.0.4.vec.insert14.i

63:                                               ; preds = %4
  %64 = landingpad { ptr, i32 }
          cleanup
  br label %67

65:                                               ; preds = %9
  %66 = landingpad { ptr, i32 }
          cleanup
  call void @llvm.lifetime.end.p0(i64 24, ptr nonnull %8) #22
  call void @llvm.lifetime.end.p0(i64 24, ptr nonnull %7) #22
  br label %67

67:                                               ; preds = %65, %63
  %.pn.pn.pn = phi { ptr, i32 } [ %66, %65 ], [ %64, %63 ]
  call void @_ZN2cv3MatD1Ev(ptr noundef nonnull align 8 dereferenceable(96) %6) #22
  call void @llvm.lifetime.end.p0(i64 96, ptr nonnull %6) #22
  call void @_ZN2cv3MatD1Ev(ptr noundef nonnull align 8 dereferenceable(96) %5) #22
  call void @llvm.lifetime.end.p0(i64 96, ptr nonnull %5) #22
  resume { ptr, i32 } %.pn.pn.pn
}